target datalayout = "e-m:e-p270:32:32-p271:32:32-p272:64:64-i64:64-i128:128-f80:128-n8:16:32:64-S128"
target triple = "x86_64-pc-linux-gnu"

%struct.If_Man_t_ = type { ptr, ptr, ptr, ptr, ptr, ptr, ptr, ptr, [5 x i32], i32, float, float, float, float, i32, float, i32, i32, [4 x ptr], ptr, i32, i32, i32, ptr, [3 x [32 x i32]], i32, i32, i32, ptr, ptr, ptr, ptr, ptr, ptr, ptr, i32, i32, i32, [16 x i32], i32, i32, i32, i32, ptr, ptr, ptr, ptr, ptr, i32, i32, [32 x i32], [32 x i32], i32, i32, i32, i32, ptr, [16 x ptr], [16 x ptr], [16 x ptr], [16 x ptr], [16 x ptr], [16 x ptr], [16 x ptr], ptr, ptr, ptr, ptr, [32 x i8], i32, i32, i32, [6 x i64], [2 x i32], [2 x i32], ptr, [15 x i32], ptr, ptr, ptr, [16 x i32], ptr, ptr, ptr, ptr, [2 x i32], [2 x i32], [2 x ptr], ptr }
%struct.If_Par_t_ = type { i32, i32, i32, i32, i32, i32, float, float, i32, i32, i32, i32, i32, i32, i32, i32, i32, i32, i32, i32, i32, i32, i32, i32, i32, i32, i32, i32, i32, i32, i32, i32, i32, i32, i32, i32, i32, i32, i32, i32, i32, i32, i32, i32, i32, i32, i32, i32, i32, i32, ptr, i32, float, i32, i32, i32, i32, i32, i32, i32, i32, i32, i32, i32, i32, i32, i32, float, float, float, ptr, ptr, ptr, ptr, ptr, ptr, ptr, ptr, ptr }
%struct.If_Obj_t_ = type { i32, i32, i32, i32, i32, i32, ptr, ptr, ptr, float, float, float, %union.anon, ptr, %struct.If_Cut_t_ }
%union.anon = type { ptr }
%struct.If_Cut_t_ = type <{ float, float, float, float, i32, i32, i32, i64, [0 x i32] }>
%struct.Vec_Ptr_t_ = type { i32, i32, ptr }

@.str.2 = private unnamed_addr constant [60 x i8] c"Attempt = %2d.  Iters = %3d.  Area = %10.2f.  Fi = %6.2f.  \00", align 1
@.str.3 = private unnamed_addr constant [11 x i8] c"  Feasible\00", align 1
@.str.4 = private unnamed_addr constant [21 x i8] c"Infeasible (timeout)\00", align 1
@.str.5 = private unnamed_addr constant [11 x i8] c"Infeasible\00", align 1
@.str.6 = private unnamed_addr constant [2 x i8] c"\0A\00", align 1

; Function Attrs: inlinehint nounwind uwtable
define internal ptr @If_ManCi(ptr noundef %0, i32 noundef %1) #2 {
  %3 = alloca ptr, align 8
  %4 = alloca i32, align 4
  store ptr %0, ptr %3, align 8, !tbaa !3
  store i32 %1, ptr %4, align 4, !tbaa !8
  %5 = load ptr, ptr %3, align 8, !tbaa !3
  %6 = getelementptr inbounds nuw %struct.If_Man_t_, ptr %5, i32 0, i32 3
  %7 = load ptr, ptr %6, align 8, !tbaa !39
  %8 = load i32, ptr %4, align 4, !tbaa !8
  %9 = call ptr @Vec_PtrEntry(ptr noundef %7, i32 noundef %8)
  ret ptr %9
}

; Function Attrs: inlinehint nounwind uwtable
define internal i32 @If_ManCiNum(ptr noundef %0) #2 {
  %2 = alloca ptr, align 8
  store ptr %0, ptr %2, align 8, !tbaa !3
  %3 = load ptr, ptr %2, align 8, !tbaa !3
  %4 = getelementptr inbounds nuw %struct.If_Man_t_, ptr %3, i32 0, i32 8
  %5 = getelementptr inbounds [5 x i32], ptr %4, i64 0, i64 2
  %6 = load i32, ptr %5, align 8, !tbaa !8
  ret i32 %6
}

; Function Attrs: inlinehint nounwind uwtable
define internal ptr @If_ManConst1(ptr noundef %0) #2 {
  %2 = alloca ptr, align 8
  store ptr %0, ptr %2, align 8, !tbaa !3
  %3 = load ptr, ptr %2, align 8, !tbaa !3
  %4 = getelementptr inbounds nuw %struct.If_Man_t_, ptr %3, i32 0, i32 2
  %5 = load ptr, ptr %4, align 8, !tbaa !76
  ret ptr %5
}

; Function Attrs: inlinehint nounwind uwtable
define internal ptr @If_ObjCutBest(ptr noundef %0) #2 {
  %2 = alloca ptr, align 8
  store ptr %0, ptr %2, align 8, !tbaa !31
  %3 = load ptr, ptr %2, align 8, !tbaa !31
  %4 = getelementptr inbounds nuw %struct.If_Obj_t_, ptr %3, i32 0, i32 14
  ret ptr %4
}

; Function Attrs: inlinehint nounwind uwtable
define internal i32 @If_ObjIsAnd(ptr noundef %0) #2 {
  %2 = alloca ptr, align 8
  store ptr %0, ptr %2, align 8, !tbaa !31
  %3 = load ptr, ptr %2, align 8, !tbaa !31
  %4 = load i32, ptr %3, align 8
  %5 = and i32 %4, 15
  %6 = icmp eq i32 %5, 4
  %7 = zext i1 %6 to i32
  ret i32 %7
}

; Function Attrs: inlinehint nounwind uwtable
define internal void @If_ObjSetArrTime(ptr noundef %0, float noundef %1) #2 {
  %3 = alloca ptr, align 8
  %4 = alloca float, align 4
  store ptr %0, ptr %3, align 8, !tbaa !31
  store float %1, ptr %4, align 4, !tbaa !65
  %5 = load float, ptr %4, align 4, !tbaa !65
  %6 = load ptr, ptr %3, align 8, !tbaa !31
  %7 = call ptr @If_ObjCutBest(ptr noundef %6)
  %8 = getelementptr inbounds nuw %struct.If_Cut_t_, ptr %7, i32 0, i32 3
  store float %5, ptr %8, align 4, !tbaa !57
  ret void
}

; Function Attrs: inlinehint nounwind uwtable
define internal void @If_ObjSetLValue(ptr noundef %0, float noundef %1) #2 {
  %3 = alloca ptr, align 8
  %4 = alloca float, align 4
  store ptr %0, ptr %3, align 8, !tbaa !31
  store float %1, ptr %4, align 4, !tbaa !65
  %5 = load float, ptr %4, align 4, !tbaa !65
  %6 = load ptr, ptr %3, align 8, !tbaa !31
  %7 = getelementptr inbounds nuw %struct.If_Obj_t_, ptr %6, i32 0, i32 11
  store float %5, ptr %7, align 8, !tbaa !66
  ret void
}

; Function Attrs: inlinehint nounwind uwtable
define internal ptr @Vec_PtrEntry(ptr noundef %0, i32 noundef %1) #2 {
  %3 = alloca ptr, align 8
  %4 = alloca i32, align 4
  store ptr %0, ptr %3, align 8, !tbaa !40
  store i32 %1, ptr %4, align 4, !tbaa !8
  %5 = load ptr, ptr %3, align 8, !tbaa !40
  %6 = getelementptr inbounds nuw %struct.Vec_Ptr_t_, ptr %5, i32 0, i32 2
  %7 = load ptr, ptr %6, align 8, !tbaa !45
  %8 = load i32, ptr %4, align 4, !tbaa !8
  %9 = sext i32 %8 to i64
  %10 = getelementptr inbounds ptr, ptr %7, i64 %9
  %11 = load ptr, ptr %10, align 8, !tbaa !41
  ret ptr %11
}

; Function Attrs: inlinehint nounwind uwtable
define internal i32 @Vec_PtrSize(ptr noundef %0) #2 {
  %2 = alloca ptr, align 8
  store ptr %0, ptr %2, align 8, !tbaa !40
  %3 = load ptr, ptr %2, align 8, !tbaa !40
  %4 = getelementptr inbounds nuw %struct.Vec_Ptr_t_, ptr %3, i32 0, i32 1
  %5 = load i32, ptr %4, align 4, !tbaa !42
  ret i32 %5
}

; Function Attrs: nounwind uwtable
define i32 @If_ManBinarySearchPeriod(ptr noundef %0) #0 {
  %2 = alloca ptr, align 8
  %3 = alloca ptr, align 8
  %4 = alloca i32, align 4
  %5 = alloca i32, align 4
  %6 = alloca i32, align 4
  store ptr %0, ptr %2, align 8, !tbaa !3
  call void @llvm.lifetime.start.p0(i64 8, ptr %3) #9
  call void @llvm.lifetime.start.p0(i64 4, ptr %4) #9
  call void @llvm.lifetime.start.p0(i64 4, ptr %5) #9
  call void @llvm.lifetime.start.p0(i64 4, ptr %6) #9
  %7 = load ptr, ptr %2, align 8, !tbaa !3
  %8 = getelementptr inbounds nuw %struct.If_Man_t_, ptr %7, i32 0, i32 35
  %9 = load i32, ptr %8, align 8, !tbaa !70
  %10 = add nsw i32 %9, 1
  store i32 %10, ptr %8, align 8, !tbaa !70
  store i32 0, ptr %4, align 4, !tbaa !8
  br label %11

11:                                               ; preds = %40, %1
  %12 = load i32, ptr %4, align 4, !tbaa !8
  %13 = load ptr, ptr %2, align 8, !tbaa !3
  %14 = getelementptr inbounds nuw %struct.If_Man_t_, ptr %13, i32 0, i32 5
  %15 = load ptr, ptr %14, align 8, !tbaa !55
  %16 = call i32 @Vec_PtrSize(ptr noundef %15)
  %17 = icmp slt i32 %12, %16
  br i1 %17, label %18, label %24

18:                                               ; preds = %11
  %19 = load ptr, ptr %2, align 8, !tbaa !3
  %20 = getelementptr inbounds nuw %struct.If_Man_t_, ptr %19, i32 0, i32 5
  %21 = load ptr, ptr %20, align 8, !tbaa !55
  %22 = load i32, ptr %4, align 4, !tbaa !8
  %23 = call ptr @Vec_PtrEntry(ptr noundef %21, i32 noundef %22)
  store ptr %23, ptr %3, align 8, !tbaa !31
  br label %24

24:                                               ; preds = %18, %11
  %25 = phi i1 [ false, %11 ], [ true, %18 ]
  br i1 %25, label %26, label %43

26:                                               ; preds = %24
  %27 = load ptr, ptr %3, align 8, !tbaa !31
  call void @If_ObjSetLValue(ptr noundef %27, float noundef -1.000000e+08)
  %28 = load ptr, ptr %3, align 8, !tbaa !31
  call void @If_ObjSetArrTime(ptr noundef %28, float noundef -1.000000e+08)
  %29 = load ptr, ptr %3, align 8, !tbaa !31
  %30 = call i32 @If_ObjIsAnd(ptr noundef %29)
  %31 = icmp ne i32 %30, 0
  br i1 %31, label %32, label %39

32:                                               ; preds = %26
  %33 = load ptr, ptr %3, align 8, !tbaa !31
  %34 = call ptr @If_ObjCutBest(ptr noundef %33)
  %35 = getelementptr inbounds nuw %struct.If_Cut_t_, ptr %34, i32 0, i32 7
  %36 = load i64, ptr %35, align 4
  %37 = and i64 %36, -4278190081
  %38 = or i64 %37, 0
  store i64 %38, ptr %35, align 4
  br label %39

39:                                               ; preds = %32, %26
  br label %40

40:                                               ; preds = %39
  %41 = load i32, ptr %4, align 4, !tbaa !8
  %42 = add nsw i32 %41, 1
  store i32 %42, ptr %4, align 4, !tbaa !8
  br label %11, !llvm.loop !71

43:                                               ; preds = %24
  %44 = load ptr, ptr %2, align 8, !tbaa !3
  %45 = call ptr @If_ManConst1(ptr noundef %44)
  store ptr %45, ptr %3, align 8, !tbaa !31
  %46 = load ptr, ptr %3, align 8, !tbaa !31
  call void @If_ObjSetLValue(ptr noundef %46, float noundef 0.000000e+00)
  %47 = load ptr, ptr %3, align 8, !tbaa !31
  call void @If_ObjSetArrTime(ptr noundef %47, float noundef 0.000000e+00)
  store i32 0, ptr %4, align 4, !tbaa !8
  br label %48

48:                                               ; preds = %79, %43
  %49 = load i32, ptr %4, align 4, !tbaa !8
  %50 = load ptr, ptr %2, align 8, !tbaa !3
  %51 = call i32 @If_ManCiNum(ptr noundef %50)
  %52 = load ptr, ptr %2, align 8, !tbaa !3
  %53 = getelementptr inbounds nuw %struct.If_Man_t_, ptr %52, i32 0, i32 1
  %54 = load ptr, ptr %53, align 8, !tbaa !10
  %55 = getelementptr inbounds nuw %struct.If_Par_t_, ptr %54, i32 0, i32 61
  %56 = load i32, ptr %55, align 8, !tbaa !27
  %57 = sub nsw i32 %51, %56
  %58 = load ptr, ptr %2, align 8, !tbaa !3
  %59 = getelementptr inbounds nuw %struct.If_Man_t_, ptr %58, i32 0, i32 1
  %60 = load ptr, ptr %59, align 8, !tbaa !10
  %61 = getelementptr inbounds nuw %struct.If_Par_t_, ptr %60, i32 0, i32 63
  %62 = load i32, ptr %61, align 8, !tbaa !46
  %63 = sub nsw i32 %57, %62
  %64 = icmp slt i32 %49, %63
  br i1 %64, label %65, label %71

65:                                               ; preds = %48
  %66 = load ptr, ptr %2, align 8, !tbaa !3
  %67 = getelementptr inbounds nuw %struct.If_Man_t_, ptr %66, i32 0, i32 3
  %68 = load ptr, ptr %67, align 8, !tbaa !39
  %69 = load i32, ptr %4, align 4, !tbaa !8
  %70 = call ptr @Vec_PtrEntry(ptr noundef %68, i32 noundef %69)
  store ptr %70, ptr %3, align 8, !tbaa !31
  br label %71

71:                                               ; preds = %65, %48
  %72 = phi i1 [ false, %48 ], [ true, %65 ]
  br i1 %72, label %73, label %82

73:                                               ; preds = %71
  %74 = load ptr, ptr %2, align 8, !tbaa !3
  %75 = load i32, ptr %4, align 4, !tbaa !8
  %76 = call ptr @If_ManCi(ptr noundef %74, i32 noundef %75)
  store ptr %76, ptr %3, align 8, !tbaa !31
  %77 = load ptr, ptr %3, align 8, !tbaa !31
  call void @If_ObjSetLValue(ptr noundef %77, float noundef 0.000000e+00)
  %78 = load ptr, ptr %3, align 8, !tbaa !31
  call void @If_ObjSetArrTime(ptr noundef %78, float noundef 0.000000e+00)
  br label %79

79:                                               ; preds = %73
  %80 = load i32, ptr %4, align 4, !tbaa !8
  %81 = add nsw i32 %80, 1
  store i32 %81, ptr %4, align 4, !tbaa !8
  br label %48, !llvm.loop !72

82:                                               ; preds = %71
  store i32 0, ptr %6, align 4, !tbaa !8
  store i32 1, ptr %5, align 4, !tbaa !8
  br label %83

83:                                               ; preds = %118, %82
  %84 = load i32, ptr %5, align 4, !tbaa !8
  %85 = load ptr, ptr %2, align 8, !tbaa !3
  %86 = getelementptr inbounds nuw %struct.If_Man_t_, ptr %85, i32 0, i32 36
  %87 = load i32, ptr %86, align 4, !tbaa !73
  %88 = icmp sle i32 %84, %87
  br i1 %88, label %89, label %121

89:                                               ; preds = %83
  %90 = load ptr, ptr %2, align 8, !tbaa !3
  %91 = load i32, ptr %5, align 4, !tbaa !8
  %92 = call i32 @If_ManPerformMappingRoundSeq(ptr noundef %90, i32 noundef %91)
  %93 = icmp ne i32 %92, 0
  br i1 %93, label %99, label %94

94:                                               ; preds = %89
  %95 = load ptr, ptr %2, align 8, !tbaa !3
  %96 = call float @If_ManDelayMax(ptr noundef %95, i32 noundef 1)
  %97 = load ptr, ptr %2, align 8, !tbaa !3
  %98 = getelementptr inbounds nuw %struct.If_Man_t_, ptr %97, i32 0, i32 11
  store float %96, ptr %98, align 4, !tbaa !63
  store i32 1, ptr %6, align 4, !tbaa !8
  br label %121

99:                                               ; preds = %89
  %100 = load ptr, ptr %2, align 8, !tbaa !3
  %101 = call float @If_ManDelayMax(ptr noundef %100, i32 noundef 1)
  %102 = load ptr, ptr %2, align 8, !tbaa !3
  %103 = getelementptr inbounds nuw %struct.If_Man_t_, ptr %102, i32 0, i32 11
  store float %101, ptr %103, align 4, !tbaa !63
  %104 = load ptr, ptr %2, align 8, !tbaa !3
  %105 = getelementptr inbounds nuw %struct.If_Man_t_, ptr %104, i32 0, i32 11
  %106 = load float, ptr %105, align 4, !tbaa !63
  %107 = load ptr, ptr %2, align 8, !tbaa !3
  %108 = getelementptr inbounds nuw %struct.If_Man_t_, ptr %107, i32 0, i32 37
  %109 = load i32, ptr %108, align 8, !tbaa !52
  %110 = sitofp i32 %109 to float
  %111 = load ptr, ptr %2, align 8, !tbaa !3
  %112 = getelementptr inbounds nuw %struct.If_Man_t_, ptr %111, i32 0, i32 10
  %113 = load float, ptr %112, align 8, !tbaa !58
  %114 = fadd float %110, %113
  %115 = fcmp ogt float %106, %114
  br i1 %115, label %116, label %117

116:                                              ; preds = %99
  br label %121

117:                                              ; preds = %99
  br label %118

118:                                              ; preds = %117
  %119 = load i32, ptr %5, align 4, !tbaa !8
  %120 = add nsw i32 %119, 1
  store i32 %120, ptr %5, align 4, !tbaa !8
  br label %83, !llvm.loop !74

121:                                              ; preds = %116, %94, %83
  %122 = load ptr, ptr %2, align 8, !tbaa !3
  call void @If_ManMarkMapping(ptr noundef %122)
  %123 = load ptr, ptr %2, align 8, !tbaa !3
  %124 = getelementptr inbounds nuw %struct.If_Man_t_, ptr %123, i32 0, i32 1
  %125 = load ptr, ptr %124, align 8, !tbaa !10
  %126 = getelementptr inbounds nuw %struct.If_Par_t_, ptr %125, i32 0, i32 48
  %127 = load i32, ptr %126, align 8, !tbaa !75
  %128 = icmp ne i32 %127, 0
  br i1 %128, label %129, label %156

129:                                              ; preds = %121
  %130 = load ptr, ptr %2, align 8, !tbaa !3
  %131 = getelementptr inbounds nuw %struct.If_Man_t_, ptr %130, i32 0, i32 35
  %132 = load i32, ptr %131, align 8, !tbaa !70
  %133 = load i32, ptr %5, align 4, !tbaa !8
  %134 = load ptr, ptr %2, align 8, !tbaa !3
  %135 = getelementptr inbounds nuw %struct.If_Man_t_, ptr %134, i32 0, i32 13
  %136 = load float, ptr %135, align 4, !tbaa !64
  %137 = fpext float %136 to double
  %138 = load ptr, ptr %2, align 8, !tbaa !3
  %139 = getelementptr inbounds nuw %struct.If_Man_t_, ptr %138, i32 0, i32 37
  %140 = load i32, ptr %139, align 8, !tbaa !52
  %141 = sitofp i32 %140 to float
  %142 = fpext float %141 to double
  call void (i32, ptr, ...) @Abc_Print(i32 noundef 1, ptr noundef @.str.2, i32 noundef %132, i32 noundef %133, double noundef %137, double noundef %142)
  %143 = load i32, ptr %6, align 4, !tbaa !8
  %144 = icmp ne i32 %143, 0
  br i1 %144, label %145, label %146

145:                                              ; preds = %129
  call void (i32, ptr, ...) @Abc_Print(i32 noundef 1, ptr noundef @.str.3)
  br label %155

146:                                              ; preds = %129
  %147 = load i32, ptr %5, align 4, !tbaa !8
  %148 = load ptr, ptr %2, align 8, !tbaa !3
  %149 = getelementptr inbounds nuw %struct.If_Man_t_, ptr %148, i32 0, i32 36
  %150 = load i32, ptr %149, align 4, !tbaa !73
  %151 = icmp sgt i32 %147, %150
  br i1 %151, label %152, label %153

152:                                              ; preds = %146
  call void (i32, ptr, ...) @Abc_Print(i32 noundef 1, ptr noundef @.str.4)
  br label %154

153:                                              ; preds = %146
  call void (i32, ptr, ...) @Abc_Print(i32 noundef 1, ptr noundef @.str.5)
  br label %154

154:                                              ; preds = %153, %152
  br label %155

155:                                              ; preds = %154, %145
  call void (i32, ptr, ...) @Abc_Print(i32 noundef 1, ptr noundef @.str.6)
  br label %156

156:                                              ; preds = %155, %121
  %157 = load i32, ptr %6, align 4, !tbaa !8
  call void @llvm.lifetime.end.p0(i64 4, ptr %6) #9
  call void @llvm.lifetime.end.p0(i64 4, ptr %5) #9
  call void @llvm.lifetime.end.p0(i64 4, ptr %4) #9
  call void @llvm.lifetime.end.p0(i64 8, ptr %3) #9
  ret i32 %157
}