; Function Attrs: nounwind uwtable
define range(i32 0, 2) i32 @If_ManBinarySearchPeriod(ptr noundef %0) local_unnamed_addr #2 {
  %2 = getelementptr inbounds nuw i8, ptr %0, i64 640
  %3 = load i32, ptr %2, align 8, !tbaa !63
  %4 = add nsw i32 %3, 1
  store i32 %4, ptr %2, align 8, !tbaa !63
  %5 = getelementptr inbounds nuw i8, ptr %0, i64 40
  %6 = load ptr, ptr %5, align 8, !tbaa !51
  %7 = getelementptr i8, ptr %6, i64 4
  %.val5566 = load i32, ptr %7, align 4, !tbaa !40
  %8 = icmp sgt i32 %.val5566, 0
  br i1 %8, label %.lr.ph, label %.critedge

.lr.ph:                                           ; preds = %1, %20
  %9 = phi ptr [ %21, %20 ], [ %6, %1 ]
  %indvars.iv = phi i64 [ %indvars.iv.next, %20 ], [ 0, %1 ]
  %10 = getelementptr i8, ptr %9, i64 8
  %.val53 = load ptr, ptr %10, align 8, !tbaa !31
  %11 = getelementptr inbounds nuw ptr, ptr %.val53, i64 %indvars.iv
  %12 = load ptr, ptr %11, align 8, !tbaa !33
  %13 = getelementptr inbounds nuw i8, ptr %12, i64 56
  store float -1.000000e+08, ptr %13, align 8, !tbaa !47
  %14 = getelementptr inbounds nuw i8, ptr %12, i64 92
  store float -1.000000e+08, ptr %14, align 4, !tbaa !48
  %.val56 = load i32, ptr %12, align 8
  %15 = and i32 %.val56, 15
  %.not59 = icmp eq i32 %15, 4
  br i1 %.not59, label %16, label %20

16:                                               ; preds = %.lr.ph
  %17 = getelementptr inbounds nuw i8, ptr %12, i64 108
  %18 = load i64, ptr %17, align 4
  %19 = and i64 %18, -4278190081
  store i64 %19, ptr %17, align 4
  %.pre = load ptr, ptr %5, align 8, !tbaa !51
  br label %20

20:                                               ; preds = %.lr.ph, %16
  %21 = phi ptr [ %9, %.lr.ph ], [ %.pre, %16 ]
  %indvars.iv.next = add nuw nsw i64 %indvars.iv, 1
  %22 = getelementptr i8, ptr %21, i64 4
  %.val55 = load i32, ptr %22, align 4, !tbaa !40
  %23 = sext i32 %.val55 to i64
  %24 = icmp slt i64 %indvars.iv.next, %23
  br i1 %24, label %.lr.ph, label %.critedge, !llvm.loop !64

.critedge:                                        ; preds = %20, %1
  %25 = getelementptr i8, ptr %0, i64 16
  %.val57 = load ptr, ptr %25, align 8, !tbaa !65
  %26 = getelementptr inbounds nuw i8, ptr %.val57, i64 56
  store float 0.000000e+00, ptr %26, align 8, !tbaa !47
  %27 = getelementptr inbounds nuw i8, ptr %.val57, i64 92
  store float 0.000000e+00, ptr %27, align 4, !tbaa !48
  %28 = getelementptr i8, ptr %0, i64 72
  %.val54 = load i32, ptr %28, align 8, !tbaa !29
  %29 = getelementptr inbounds nuw i8, ptr %0, i64 8
  %30 = load ptr, ptr %29, align 8, !tbaa !3
  %31 = getelementptr inbounds nuw i8, ptr %30, i64 248
  %32 = load i32, ptr %31, align 8, !tbaa !24
  %33 = getelementptr inbounds nuw i8, ptr %30, i64 256
  %34 = load i32, ptr %33, align 8, !tbaa !42
  %35 = add i32 %32, %34
  %36 = sub i32 %.val54, %35
  %37 = icmp sgt i32 %36, 0
  br i1 %37, label %.lr.ph69, label %.critedge2.preheader

.lr.ph69:                                         ; preds = %.critedge
  %38 = getelementptr inbounds nuw i8, ptr %0, i64 24
  %39 = load ptr, ptr %38, align 8, !tbaa !34
  %40 = getelementptr i8, ptr %39, i64 8
  %.val = load ptr, ptr %40, align 8, !tbaa !31
  %wide.trip.count = zext nneg i32 %36 to i64
  br label %46

.critedge2.preheader:                             ; preds = %46, %.critedge
  %41 = getelementptr inbounds nuw i8, ptr %0, i64 644
  %42 = load i32, ptr %41, align 4, !tbaa !66
  %.not70 = icmp slt i32 %42, 1
  br i1 %.not70, label %.loopexit, label %.lr.ph72

.lr.ph72:                                         ; preds = %.critedge2.preheader
  %43 = getelementptr inbounds nuw i8, ptr %0, i64 92
  %44 = getelementptr inbounds nuw i8, ptr %0, i64 648
  %45 = getelementptr inbounds nuw i8, ptr %0, i64 88
  br label %51

46:                                               ; preds = %.lr.ph69, %46
  %indvars.iv76 = phi i64 [ 0, %.lr.ph69 ], [ %indvars.iv.next77, %46 ]
  %47 = getelementptr inbounds nuw ptr, ptr %.val, i64 %indvars.iv76
  %48 = load ptr, ptr %47, align 8, !tbaa !33
  %49 = getelementptr inbounds nuw i8, ptr %48, i64 56
  store float 0.000000e+00, ptr %49, align 8, !tbaa !47
  %50 = getelementptr inbounds nuw i8, ptr %48, i64 92
  store float 0.000000e+00, ptr %50, align 4, !tbaa !48
  %indvars.iv.next77 = add nuw nsw i64 %indvars.iv76, 1
  %exitcond.not = icmp eq i64 %indvars.iv.next77, %wide.trip.count
  br i1 %exitcond.not, label %.critedge2.preheader, label %46, !llvm.loop !67

51:                                               ; preds = %.lr.ph72, %.critedge2
  %.04771 = phi i32 [ 1, %.lr.ph72 ], [ %60, %.critedge2 ]
  %52 = tail call i32 @If_ManPerformMappingRoundSeq(ptr noundef nonnull %0, i32 noundef %.04771)
  %.not49 = icmp ne i32 %52, 0
  %53 = tail call float @If_ManDelayMax(ptr noundef nonnull %0, i32 noundef 1) #14
  store float %53, ptr %43, align 4, !tbaa !68
  br i1 %.not49, label %54, label %.loopexit

54:                                               ; preds = %51
  %55 = load i32, ptr %44, align 8, !tbaa !46
  %56 = sitofp i32 %55 to float
  %57 = load float, ptr %45, align 8, !tbaa !53
  %58 = fadd float %57, %56
  %59 = fcmp ogt float %53, %58
  br i1 %59, label %.loopexit, label %.critedge2

.critedge2:                                       ; preds = %54
  %60 = add nuw nsw i32 %.04771, 1
  %61 = load i32, ptr %41, align 4, !tbaa !66
  %.not.not = icmp slt i32 %.04771, %61
  br i1 %.not.not, label %51, label %.loopexit, !llvm.loop !69

.loopexit:                                        ; preds = %.critedge2, %54, %51, %.critedge2.preheader
  %.04764 = phi i32 [ 1, %.critedge2.preheader ], [ %60, %.critedge2 ], [ %.04771, %54 ], [ %.04771, %51 ]
  %.not51 = phi i1 [ true, %.critedge2.preheader ], [ %.not49, %51 ], [ %.not49, %54 ], [ %.not49, %.critedge2 ]
  %.0 = phi i32 [ 0, %.critedge2.preheader ], [ 0, %.critedge2 ], [ 0, %54 ], [ 1, %51 ]
  tail call void @If_ManMarkMapping(ptr noundef nonnull %0) #14
  %62 = load ptr, ptr %29, align 8, !tbaa !3
  %63 = getelementptr inbounds nuw i8, ptr %62, i64 192
  %64 = load i32, ptr %63, align 8, !tbaa !70
  %.not50 = icmp eq i32 %64, 0
  br i1 %.not50, label %78, label %65

65:                                               ; preds = %.loopexit
  %66 = load i32, ptr %2, align 8, !tbaa !63
  %67 = getelementptr inbounds nuw i8, ptr %0, i64 100
  %68 = load float, ptr %67, align 4, !tbaa !71
  %69 = fpext float %68 to double
  %70 = getelementptr inbounds nuw i8, ptr %0, i64 648
  %71 = load i32, ptr %70, align 8, !tbaa !46
  %72 = sitofp i32 %71 to float
  %73 = fpext float %72 to double
  tail call void (i32, ptr, ...) @Abc_Print(i32 poison, ptr noundef nonnull @.str.2, i32 noundef %66, i32 noundef %.04764, double noundef %69, double noundef %73)
  br i1 %.not51, label %74, label %77

74:                                               ; preds = %65
  %75 = load i32, ptr %41, align 4, !tbaa !66
  %76 = icmp sgt i32 %.04764, %75
  %.str.4..str.5 = select i1 %76, ptr @.str.4, ptr @.str.5
  br label %77

77:                                               ; preds = %74, %65
  %.str.4.sink = phi ptr [ @.str.3, %65 ], [ %.str.4..str.5, %74 ]
  tail call void (i32, ptr, ...) @Abc_Print(i32 poison, ptr noundef nonnull %.str.4.sink)
  tail call void (i32, ptr, ...) @Abc_Print(i32 poison, ptr noundef nonnull @.str.6)
  br label %78

78:                                               ; preds = %77, %.loopexit
  ret i32 %.0
}